target datalayout = "e-m:e-p270:32:32-p271:32:32-p272:64:64-i64:64-i128:128-f80:128-n8:16:32:64-S128"
target triple = "x86_64-pc-linux-gnu"

%class.btCollisionObject = type <{ ptr, %class.btTransform, %class.btTransform, %class.btVector3, %class.btVector3, %class.btVector3, i32, float, ptr, ptr, ptr, ptr, i32, i32, i32, i32, i32, float, float, float, float, float, float, float, i32, [4 x i8], ptr, i32, i32, i32, float, float, float, i32, [4 x i8], %class.btAlignedObjectArray, i32, %class.btVector3, [4 x i8] }>
%class.btTransform = type { %class.btMatrix3x3, %class.btVector3 }
%class.btMatrix3x3 = type { [3 x %class.btVector3] }
%class.btAlignedObjectArray = type <{ [4 x i8], i32, i32, [4 x i8], ptr, i8, [7 x i8] }>
%class.btVector3 = type { [4 x float] }

; Function Attrs: mustprogress nounwind uwtable
define linkonce_odr dso_local noundef float @_ZNK17btCollisionObject19getContactStiffnessEv(ptr noundef nonnull align 8 dereferenceable(372) %0) #1 comdat align 2 {
  %2 = alloca ptr, align 8
  store ptr %0, ptr %2, align 8, !tbaa !12
  %3 = load ptr, ptr %2, align 8
  %4 = getelementptr inbounds nuw %class.btCollisionObject, ptr %3, i32 0, i32 23
  %5 = load float, ptr %4, align 4, !tbaa !31
  ret float %5
}

; Function Attrs: mustprogress uwtable
define dso_local noundef float @_ZN16btManifoldResult33calculateCombinedContactStiffnessEPK17btCollisionObjectS2_(ptr noundef %0, ptr noundef %1) #2 align 2 {
  %3 = alloca ptr, align 8
  %4 = alloca ptr, align 8
  %5 = alloca float, align 4
  %6 = alloca float, align 4
  %7 = alloca float, align 4
  %8 = alloca float, align 4
  %9 = alloca float, align 4
  store ptr %0, ptr %3, align 8, !tbaa !12
  store ptr %1, ptr %4, align 8, !tbaa !12
  call void @llvm.lifetime.start.p0(i64 4, ptr %5) #14
  %10 = load ptr, ptr %3, align 8, !tbaa !12
  %11 = call noundef float @_ZNK17btCollisionObject19getContactStiffnessEv(ptr noundef nonnull align 8 dereferenceable(372) %10)
  store float %11, ptr %5, align 4, !tbaa !14
  call void @llvm.lifetime.start.p0(i64 4, ptr %6) #14
  %12 = load ptr, ptr %4, align 8, !tbaa !12
  %13 = call noundef float @_ZNK17btCollisionObject19getContactStiffnessEv(ptr noundef nonnull align 8 dereferenceable(372) %12)
  store float %13, ptr %6, align 4, !tbaa !14
  call void @llvm.lifetime.start.p0(i64 4, ptr %7) #14
  %14 = load float, ptr %5, align 4, !tbaa !14
  %15 = fdiv float 1.000000e+00, %14
  store float %15, ptr %7, align 4, !tbaa !14
  call void @llvm.lifetime.start.p0(i64 4, ptr %8) #14
  %16 = load float, ptr %6, align 4, !tbaa !14
  %17 = fdiv float 1.000000e+00, %16
  store float %17, ptr %8, align 4, !tbaa !14
  call void @llvm.lifetime.start.p0(i64 4, ptr %9) #14
  %18 = load float, ptr %7, align 4, !tbaa !14
  %19 = load float, ptr %8, align 4, !tbaa !14
  %20 = fadd float %18, %19
  %21 = fdiv float 1.000000e+00, %20
  store float %21, ptr %9, align 4, !tbaa !14
  %22 = load float, ptr %9, align 4, !tbaa !14
  call void @llvm.lifetime.end.p0(i64 4, ptr %9) #14
  call void @llvm.lifetime.end.p0(i64 4, ptr %8) #14
  call void @llvm.lifetime.end.p0(i64 4, ptr %7) #14
  call void @llvm.lifetime.end.p0(i64 4, ptr %6) #14
  call void @llvm.lifetime.end.p0(i64 4, ptr %5) #14
  ret float %22
}