; Function Attrs: mustprogress nofree norecurse nosync nounwind willreturn memory(argmem: read) uwtable
define dso_local noundef float @_ZN16btManifoldResult33calculateCombinedContactStiffnessEPK17btCollisionObjectS2_(ptr noundef readonly captures(none) %0, ptr noundef readonly captures(none) %1) #0 align 2 {
  %3 = getelementptr inbounds nuw i8, ptr %0, i64 268
  %4 = load float, ptr %3, align 4, !tbaa !24
  %5 = getelementptr inbounds nuw i8, ptr %1, i64 268
  %6 = load float, ptr %5, align 4, !tbaa !24
  %7 = fdiv float 1.000000e+00, %4
  %8 = fdiv float 1.000000e+00, %6
  %9 = fadd float %7, %8
  %10 = fdiv float 1.000000e+00, %9
  ret float %10
}